target datalayout = "e-m:e-p270:32:32-p271:32:32-p272:64:64-i64:64-i128:128-f80:128-n8:16:32:64-S128"
target triple = "x86_64-pc-linux-gnu"

%struct.Kit_Sop_t_ = type { i32, i32, ptr }
%struct.Vec_Int_t_ = type { i32, i32, ptr }

@Kit_SopFactorVerify.dd = internal global ptr null, align 8
@.str = private unnamed_addr constant [2 x i8] c"\0A\00", align 1

; Function Attrs: inlinehint nounwind uwtable
define internal void @Vec_IntFree(ptr noundef %0) #3 {
  %2 = alloca ptr, align 8
  store ptr %0, ptr %2, align 8, !tbaa !52
  %3 = load ptr, ptr %2, align 8, !tbaa !52
  %4 = getelementptr inbounds nuw %struct.Vec_Int_t_, ptr %3, i32 0, i32 2
  %5 = load ptr, ptr %4, align 8, !tbaa !57
  %6 = icmp ne ptr %5, null
  br i1 %6, label %7, label %13

7:                                                ; preds = %1
  %8 = load ptr, ptr %2, align 8, !tbaa !52
  %9 = getelementptr inbounds nuw %struct.Vec_Int_t_, ptr %8, i32 0, i32 2
  %10 = load ptr, ptr %9, align 8, !tbaa !57
  call void @free(ptr noundef %10) #6
  %11 = load ptr, ptr %2, align 8, !tbaa !52
  %12 = getelementptr inbounds nuw %struct.Vec_Int_t_, ptr %11, i32 0, i32 2
  store ptr null, ptr %12, align 8, !tbaa !57
  br label %14

13:                                               ; preds = %1
  br label %14

14:                                               ; preds = %13, %7
  %15 = load ptr, ptr %2, align 8, !tbaa !52
  %16 = icmp ne ptr %15, null
  br i1 %16, label %17, label %19

17:                                               ; preds = %14
  %18 = load ptr, ptr %2, align 8, !tbaa !52
  call void @free(ptr noundef %18) #6
  store ptr null, ptr %2, align 8, !tbaa !52
  br label %20

19:                                               ; preds = %14
  br label %20

20:                                               ; preds = %19, %17
  ret void
}

; Function Attrs: inlinehint nounwind uwtable
define internal ptr @Vec_IntAlloc(i32 noundef %0) #3 {
  %2 = alloca i32, align 4
  %3 = alloca ptr, align 8
  store i32 %0, ptr %2, align 4, !tbaa !10
  call void @llvm.lifetime.start.p0(i64 8, ptr %3) #6
  %4 = call noalias ptr @malloc(i64 noundef 16) #7
  store ptr %4, ptr %3, align 8, !tbaa !52
  %5 = load i32, ptr %2, align 4, !tbaa !10
  %6 = icmp sgt i32 %5, 0
  br i1 %6, label %7, label %11

7:                                                ; preds = %1
  %8 = load i32, ptr %2, align 4, !tbaa !10
  %9 = icmp slt i32 %8, 16
  br i1 %9, label %10, label %11

10:                                               ; preds = %7
  store i32 16, ptr %2, align 4, !tbaa !10
  br label %11

11:                                               ; preds = %10, %7, %1
  %12 = load ptr, ptr %3, align 8, !tbaa !52
  %13 = getelementptr inbounds nuw %struct.Vec_Int_t_, ptr %12, i32 0, i32 1
  store i32 0, ptr %13, align 4, !tbaa !54
  %14 = load i32, ptr %2, align 4, !tbaa !10
  %15 = load ptr, ptr %3, align 8, !tbaa !52
  %16 = getelementptr inbounds nuw %struct.Vec_Int_t_, ptr %15, i32 0, i32 0
  store i32 %14, ptr %16, align 8, !tbaa !56
  %17 = load ptr, ptr %3, align 8, !tbaa !52
  %18 = getelementptr inbounds nuw %struct.Vec_Int_t_, ptr %17, i32 0, i32 0
  %19 = load i32, ptr %18, align 8, !tbaa !56
  %20 = icmp ne i32 %19, 0
  br i1 %20, label %21, label %28

21:                                               ; preds = %11
  %22 = load ptr, ptr %3, align 8, !tbaa !52
  %23 = getelementptr inbounds nuw %struct.Vec_Int_t_, ptr %22, i32 0, i32 0
  %24 = load i32, ptr %23, align 8, !tbaa !56
  %25 = sext i32 %24 to i64
  %26 = mul i64 4, %25
  %27 = call noalias ptr @malloc(i64 noundef %26) #7
  br label %29

28:                                               ; preds = %11
  br label %29

29:                                               ; preds = %28, %21
  %30 = phi ptr [ %27, %21 ], [ null, %28 ]
  %31 = load ptr, ptr %3, align 8, !tbaa !52
  %32 = getelementptr inbounds nuw %struct.Vec_Int_t_, ptr %31, i32 0, i32 2
  store ptr %30, ptr %32, align 8, !tbaa !57
  %33 = load ptr, ptr %3, align 8, !tbaa !52
  call void @llvm.lifetime.end.p0(i64 8, ptr %3) #6
  ret ptr %33
}

; Function Attrs: inlinehint nounwind uwtable
define internal i32 @Vec_IntSize(ptr noundef %0) #3 {
  %2 = alloca ptr, align 8
  store ptr %0, ptr %2, align 8, !tbaa !52
  %3 = load ptr, ptr %2, align 8, !tbaa !52
  %4 = getelementptr inbounds nuw %struct.Vec_Int_t_, ptr %3, i32 0, i32 1
  %5 = load i32, ptr %4, align 4, !tbaa !54
  ret i32 %5
}

; Function Attrs: nounwind uwtable
define i32 @Kit_SopFactorVerify(ptr noundef %0, ptr noundef %1, i32 noundef %2) #0 {
  %4 = alloca ptr, align 8
  %5 = alloca ptr, align 8
  %6 = alloca i32, align 4
  %7 = alloca %struct.Kit_Sop_t_, align 8
  %8 = alloca ptr, align 8
  %9 = alloca ptr, align 8
  %10 = alloca ptr, align 8
  %11 = alloca ptr, align 8
  %12 = alloca i32, align 4
  %13 = alloca i32, align 4
  store ptr %0, ptr %4, align 8, !tbaa !52
  store ptr %1, ptr %5, align 8, !tbaa !21
  store i32 %2, ptr %6, align 4, !tbaa !10
  call void @llvm.lifetime.start.p0(i64 16, ptr %7) #6
  call void @llvm.lifetime.start.p0(i64 8, ptr %8) #6
  store ptr %7, ptr %8, align 8, !tbaa !8
  call void @llvm.lifetime.start.p0(i64 8, ptr %9) #6
  call void @llvm.lifetime.start.p0(i64 8, ptr %10) #6
  call void @llvm.lifetime.start.p0(i64 8, ptr %11) #6
  call void @llvm.lifetime.start.p0(i64 4, ptr %12) #6
  %14 = load ptr, ptr @Kit_SopFactorVerify.dd, align 8, !tbaa !3
  %15 = icmp eq ptr %14, null
  br i1 %15, label %16, label %18

16:                                               ; preds = %3
  %17 = call ptr @Cudd_Init(i32 noundef 16, i32 noundef 0, i32 noundef 256, i32 noundef 262144, i64 noundef 0)
  store ptr %17, ptr @Kit_SopFactorVerify.dd, align 8, !tbaa !3
  br label %18

18:                                               ; preds = %16, %3
  %19 = load ptr, ptr %4, align 8, !tbaa !52
  %20 = call i32 @Vec_IntSize(ptr noundef %19)
  %21 = call ptr @Vec_IntAlloc(i32 noundef %20)
  store ptr %21, ptr %11, align 8, !tbaa !52
  %22 = load ptr, ptr %8, align 8, !tbaa !8
  %23 = load ptr, ptr %4, align 8, !tbaa !52
  %24 = load i32, ptr %6, align 4, !tbaa !10
  %25 = load ptr, ptr %11, align 8, !tbaa !52
  call void @Kit_SopCreate(ptr noundef %22, ptr noundef %23, i32 noundef %24, ptr noundef %25)
  %26 = load ptr, ptr @Kit_SopFactorVerify.dd, align 8, !tbaa !3
  %27 = load ptr, ptr %8, align 8, !tbaa !8
  %28 = load i32, ptr %6, align 4, !tbaa !10
  %29 = call ptr @Kit_SopToBdd(ptr noundef %26, ptr noundef %27, i32 noundef %28)
  store ptr %29, ptr %9, align 8, !tbaa !12
  %30 = load ptr, ptr %9, align 8, !tbaa !12
  call void @Cudd_Ref(ptr noundef %30)
  %31 = load ptr, ptr @Kit_SopFactorVerify.dd, align 8, !tbaa !3
  %32 = load ptr, ptr %5, align 8, !tbaa !21
  %33 = call ptr @Kit_GraphToBdd(ptr noundef %31, ptr noundef %32)
  store ptr %33, ptr %10, align 8, !tbaa !12
  %34 = load ptr, ptr %10, align 8, !tbaa !12
  call void @Cudd_Ref(ptr noundef %34)
  %35 = load ptr, ptr %9, align 8, !tbaa !12
  %36 = load ptr, ptr %10, align 8, !tbaa !12
  %37 = icmp eq ptr %35, %36
  %38 = zext i1 %37 to i32
  store i32 %38, ptr %12, align 4, !tbaa !10
  %39 = load ptr, ptr %9, align 8, !tbaa !12
  %40 = load ptr, ptr %10, align 8, !tbaa !12
  %41 = icmp ne ptr %39, %40
  br i1 %41, label %42, label %49

42:                                               ; preds = %18
  call void @llvm.lifetime.start.p0(i64 4, ptr %13) #6
  %43 = load ptr, ptr @Kit_SopFactorVerify.dd, align 8, !tbaa !3
  %44 = load ptr, ptr %9, align 8, !tbaa !12
  call void @Extra_bddPrint(ptr noundef %43, ptr noundef %44)
  %45 = call i32 (ptr, ...) @printf(ptr noundef @.str)
  %46 = load ptr, ptr @Kit_SopFactorVerify.dd, align 8, !tbaa !3
  %47 = load ptr, ptr %10, align 8, !tbaa !12
  call void @Extra_bddPrint(ptr noundef %46, ptr noundef %47)
  %48 = call i32 (ptr, ...) @printf(ptr noundef @.str)
  store i32 0, ptr %13, align 4, !tbaa !10
  call void @llvm.lifetime.end.p0(i64 4, ptr %13) #6
  br label %49

49:                                               ; preds = %42, %18
  %50 = load ptr, ptr @Kit_SopFactorVerify.dd, align 8, !tbaa !3
  %51 = load ptr, ptr %9, align 8, !tbaa !12
  call void @Cudd_RecursiveDeref(ptr noundef %50, ptr noundef %51)
  %52 = load ptr, ptr @Kit_SopFactorVerify.dd, align 8, !tbaa !3
  %53 = load ptr, ptr %10, align 8, !tbaa !12
  call void @Cudd_RecursiveDeref(ptr noundef %52, ptr noundef %53)
  %54 = load ptr, ptr %11, align 8, !tbaa !52
  call void @Vec_IntFree(ptr noundef %54)
  %55 = load i32, ptr %12, align 4, !tbaa !10
  call void @llvm.lifetime.end.p0(i64 4, ptr %12) #6
  call void @llvm.lifetime.end.p0(i64 8, ptr %11) #6
  call void @llvm.lifetime.end.p0(i64 8, ptr %10) #6
  call void @llvm.lifetime.end.p0(i64 8, ptr %9) #6
  call void @llvm.lifetime.end.p0(i64 8, ptr %8) #6
  call void @llvm.lifetime.end.p0(i64 16, ptr %7) #6
  ret i32 %55
}