; Function Attrs: nounwind uwtable
define range(i32 0, 2) i32 @Kit_SopFactorVerify(ptr noundef %0, ptr noundef readonly captures(none) %1, i32 noundef %2) local_unnamed_addr #0 {
  %4 = alloca %struct.Kit_Sop_t_, align 8
  call void @llvm.lifetime.start.p0(i64 16, ptr nonnull %4) #6
  %5 = load ptr, ptr @Kit_SopFactorVerify.dd, align 8, !tbaa !44
  %6 = icmp eq ptr %5, null
  br i1 %6, label %7, label %9

7:                                                ; preds = %3
  %8 = tail call ptr @Cudd_Init(i32 noundef 16, i32 noundef 0, i32 noundef 256, i32 noundef 262144, i64 noundef 0) #6
  store ptr %8, ptr @Kit_SopFactorVerify.dd, align 8, !tbaa !44
  br label %9

9:                                                ; preds = %7, %3
  %10 = getelementptr i8, ptr %0, i64 4
  %.val = load i32, ptr %10, align 4, !tbaa !46
  %11 = tail call noalias dereferenceable_or_null(16) ptr @malloc(i64 noundef 16) #7
  %12 = add i32 %.val, -1
  %or.cond.i = icmp ult i32 %12, 15
  %spec.store.select.i = select i1 %or.cond.i, i32 16, i32 %.val
  %13 = getelementptr inbounds nuw i8, ptr %11, i64 4
  store i32 0, ptr %13, align 4, !tbaa !46
  store i32 %spec.store.select.i, ptr %11, align 8, !tbaa !48
  %.not.i = icmp eq i32 %spec.store.select.i, 0
  br i1 %.not.i, label %Vec_IntAlloc.exit, label %14

14:                                               ; preds = %9
  %15 = sext i32 %spec.store.select.i to i64
  %16 = shl nsw i64 %15, 2
  %17 = tail call noalias ptr @malloc(i64 noundef %16) #7
  br label %Vec_IntAlloc.exit

Vec_IntAlloc.exit:                                ; preds = %9, %14
  %18 = phi ptr [ %17, %14 ], [ null, %9 ]
  %19 = getelementptr inbounds nuw i8, ptr %11, i64 8
  store ptr %18, ptr %19, align 8, !tbaa !49
  call void @Kit_SopCreate(ptr noundef nonnull %4, ptr noundef nonnull %0, i32 noundef %2, ptr noundef nonnull %11) #6
  %20 = load ptr, ptr @Kit_SopFactorVerify.dd, align 8, !tbaa !44
  %21 = call ptr @Kit_SopToBdd(ptr noundef %20, ptr noundef nonnull %4, i32 noundef %2)
  call void @Cudd_Ref(ptr noundef %21) #6
  %22 = load ptr, ptr @Kit_SopFactorVerify.dd, align 8, !tbaa !44
  %23 = call ptr @Kit_GraphToBdd(ptr noundef %22, ptr noundef %1)
  call void @Cudd_Ref(ptr noundef %23) #6
  %.not = icmp eq ptr %21, %23
  br i1 %.not, label %27, label %24

24:                                               ; preds = %Vec_IntAlloc.exit
  %25 = load ptr, ptr @Kit_SopFactorVerify.dd, align 8, !tbaa !44
  call void @Extra_bddPrint(ptr noundef %25, ptr noundef %21) #6
  %putchar = call i32 @putchar(i32 10)
  %26 = load ptr, ptr @Kit_SopFactorVerify.dd, align 8, !tbaa !44
  call void @Extra_bddPrint(ptr noundef %26, ptr noundef %23) #6
  %putchar20 = call i32 @putchar(i32 10)
  br label %27

27:                                               ; preds = %24, %Vec_IntAlloc.exit
  %28 = load ptr, ptr @Kit_SopFactorVerify.dd, align 8, !tbaa !44
  call void @Cudd_RecursiveDeref(ptr noundef %28, ptr noundef %21) #6
  %29 = load ptr, ptr @Kit_SopFactorVerify.dd, align 8, !tbaa !44
  call void @Cudd_RecursiveDeref(ptr noundef %29, ptr noundef %23) #6
  %30 = load ptr, ptr %19, align 8, !tbaa !49
  %.not.i21 = icmp eq ptr %30, null
  br i1 %.not.i21, label %Vec_IntFree.exit, label %31

31:                                               ; preds = %27
  call void @free(ptr noundef nonnull %30) #6
  br label %Vec_IntFree.exit

Vec_IntFree.exit:                                 ; preds = %27, %31
  %32 = zext i1 %.not to i32
  call void @free(ptr noundef nonnull %11) #6
  call void @llvm.lifetime.end.p0(i64 16, ptr nonnull %4) #6
  ret i32 %32
}